target datalayout = "e-m:e-p270:32:32-p271:32:32-p272:64:64-i64:64-i128:128-f80:128-n8:16:32:64-S128"
target triple = "x86_64-pc-linux-gnu"

%"class.std::_Function_base" = type { %"union.std::_Any_data", ptr }
%"union.std::_Any_data" = type { %"union.std::_Nocopy_types" }
%"union.std::_Nocopy_types" = type { { i64, i64 } }
%"class.std::basic_string_view" = type { i64, ptr }
%"struct.nix::Sink" = type { ptr }
%"class.std::function" = type { %"class.std::_Function_base", ptr }
%struct.SourceToSink = type { %"struct.nix::FinishSink", %"class.std::function", %"class.std::optional.103", %"class.std::basic_string_view" }
%"struct.nix::FinishSink" = type { %"struct.nix::Sink" }
%"class.std::optional.103" = type { %"struct.std::_Optional_base.104" }
%"struct.std::_Optional_base.104" = type { %"struct.std::_Optional_payload.106" }
%"struct.std::_Optional_payload.106" = type { %"struct.std::_Optional_payload.base.110", [7 x i8] }
%"struct.std::_Optional_payload.base.110" = type { %"struct.std::_Optional_payload_base.base.109" }
%"struct.std::_Optional_payload_base.base.109" = type <{ %"union.std::_Optional_payload_base<boost::coroutines2::detail::push_coroutine<bool>>::_Storage", i8 }>
%"union.std::_Optional_payload_base<boost::coroutines2::detail::push_coroutine<bool>>::_Storage" = type { %"class.boost::coroutines2::detail::push_coroutine" }
%"class.boost::coroutines2::detail::push_coroutine" = type { ptr }
%"struct.std::_Optional_payload_base.108" = type <{ %"union.std::_Optional_payload_base<boost::coroutines2::detail::push_coroutine<bool>>::_Storage", i8, [7 x i8] }>

; Function Attrs: mustprogress nounwind uwtable
define linkonce_odr void @_ZNSt22_Optional_payload_baseIN5boost11coroutines26detail14push_coroutineIbEEE8_StorageIS4_Lb0EED2Ev(ptr noundef nonnull align 8 dereferenceable(8) %0) unnamed_addr #2 comdat align 2 {
  %2 = alloca ptr, align 8
  store ptr %0, ptr %2, align 8
  ret void
}

; Function Attrs: mustprogress nounwind uwtable
define linkonce_odr void @_ZN5boost11coroutines26detail14push_coroutineIbED2Ev(ptr noundef nonnull align 8 dereferenceable(8) %0) unnamed_addr #2 comdat align 2 {
  %2 = alloca ptr, align 8
  store ptr %0, ptr %2, align 8
  %3 = load ptr, ptr %2, align 8
  %4 = getelementptr inbounds %"class.boost::coroutines2::detail::push_coroutine", ptr %3, i32 0, i32 0
  %5 = load ptr, ptr %4, align 8
  %6 = icmp ne ptr null, %5
  br i1 %6, label %7, label %10

7:                                                ; preds = %1
  %8 = getelementptr inbounds %"class.boost::coroutines2::detail::push_coroutine", ptr %3, i32 0, i32 0
  %9 = load ptr, ptr %8, align 8
  call void @_ZN5boost11coroutines26detail14push_coroutineIbE13control_block10deallocateEv(ptr noundef nonnull align 8 dereferenceable(32) %9) #1
  br label %10

10:                                               ; preds = %7, %1
  ret void
}

; Function Attrs: mustprogress nounwind uwtable
define linkonce_odr void @_ZNSt22_Optional_payload_baseIN5boost11coroutines26detail14push_coroutineIbEEED2Ev(ptr noundef nonnull align 8 dereferenceable(9) %0) unnamed_addr #2 comdat align 2 {
  %2 = alloca ptr, align 8
  store ptr %0, ptr %2, align 8
  %3 = load ptr, ptr %2, align 8
  %4 = getelementptr inbounds %"struct.std::_Optional_payload_base.108", ptr %3, i32 0, i32 0
  call void @_ZNSt22_Optional_payload_baseIN5boost11coroutines26detail14push_coroutineIbEEE8_StorageIS4_Lb0EED2Ev(ptr noundef nonnull align 8 dereferenceable(8) %4) #1
  ret void
}

; Function Attrs: mustprogress nounwind uwtable
define linkonce_odr void @_ZNSt22_Optional_payload_baseIN5boost11coroutines26detail14push_coroutineIbEEE10_M_destroyEv(ptr noundef nonnull align 8 dereferenceable(9) %0) #2 comdat align 2 {
  %2 = alloca ptr, align 8
  store ptr %0, ptr %2, align 8
  %3 = load ptr, ptr %2, align 8
  %4 = getelementptr inbounds %"struct.std::_Optional_payload_base.108", ptr %3, i32 0, i32 1
  store i8 0, ptr %4, align 8
  %5 = getelementptr inbounds %"struct.std::_Optional_payload_base.108", ptr %3, i32 0, i32 0
  call void @_ZN5boost11coroutines26detail14push_coroutineIbED2Ev(ptr noundef nonnull align 8 dereferenceable(8) %5) #1
  ret void
}

; Function Attrs: mustprogress nounwind uwtable
define linkonce_odr void @_ZNSt17_Optional_payloadIN5boost11coroutines26detail14push_coroutineIbEELb1ELb0ELb0EED2Ev(ptr noundef nonnull align 8 dereferenceable(9) %0) unnamed_addr #2 comdat align 2 {
  %2 = alloca ptr, align 8
  store ptr %0, ptr %2, align 8
  %3 = load ptr, ptr %2, align 8
  call void @_ZNSt22_Optional_payload_baseIN5boost11coroutines26detail14push_coroutineIbEEED2Ev(ptr noundef nonnull align 8 dereferenceable(9) %3) #1
  ret void
}

; Function Attrs: mustprogress nounwind uwtable
define linkonce_odr void @_ZNSt22_Optional_payload_baseIN5boost11coroutines26detail14push_coroutineIbEEE8_M_resetEv(ptr noundef nonnull align 8 dereferenceable(9) %0) #2 comdat align 2 {
  %2 = alloca ptr, align 8
  store ptr %0, ptr %2, align 8
  %3 = load ptr, ptr %2, align 8
  %4 = getelementptr inbounds %"struct.std::_Optional_payload_base.108", ptr %3, i32 0, i32 1
  %5 = load i8, ptr %4, align 8
  %6 = trunc i8 %5 to i1
  br i1 %6, label %7, label %8

7:                                                ; preds = %1
  call void @_ZNSt22_Optional_payload_baseIN5boost11coroutines26detail14push_coroutineIbEEE10_M_destroyEv(ptr noundef nonnull align 8 dereferenceable(9) %3) #1
  br label %8

8:                                                ; preds = %7, %1
  ret void
}

; Function Attrs: mustprogress nounwind uwtable
define linkonce_odr void @_ZNSt17_Optional_payloadIN5boost11coroutines26detail14push_coroutineIbEELb0ELb0ELb0EED2Ev(ptr noundef nonnull align 8 dereferenceable(9) %0) unnamed_addr #2 comdat align 2 {
  %2 = alloca ptr, align 8
  store ptr %0, ptr %2, align 8
  %3 = load ptr, ptr %2, align 8
  call void @_ZNSt22_Optional_payload_baseIN5boost11coroutines26detail14push_coroutineIbEEE8_M_resetEv(ptr noundef nonnull align 8 dereferenceable(9) %3) #1
  call void @_ZNSt17_Optional_payloadIN5boost11coroutines26detail14push_coroutineIbEELb1ELb0ELb0EED2Ev(ptr noundef nonnull align 8 dereferenceable(9) %3) #1
  ret void
}

; Function Attrs: mustprogress nounwind uwtable
define linkonce_odr void @_ZNSt14_Function_baseD2Ev(ptr noundef nonnull align 8 dereferenceable(24) %0) unnamed_addr #2 comdat align 2 personality ptr @__gxx_personality_v0 {
  %2 = alloca ptr, align 8
  store ptr %0, ptr %2, align 8
  %3 = load ptr, ptr %2, align 8
  %4 = getelementptr inbounds %"class.std::_Function_base", ptr %3, i32 0, i32 1
  %5 = load ptr, ptr %4, align 8
  %6 = icmp ne ptr %5, null
  br i1 %6, label %7, label %14

7:                                                ; preds = %1
  %8 = getelementptr inbounds %"class.std::_Function_base", ptr %3, i32 0, i32 1
  %9 = load ptr, ptr %8, align 8
  %10 = getelementptr inbounds %"class.std::_Function_base", ptr %3, i32 0, i32 0
  %11 = getelementptr inbounds %"class.std::_Function_base", ptr %3, i32 0, i32 0
  %12 = invoke noundef zeroext i1 %9(ptr noundef nonnull align 8 dereferenceable(16) %10, ptr noundef nonnull align 8 dereferenceable(16) %11, i32 noundef 3)
          to label %13 unwind label %15

13:                                               ; preds = %7
  br label %14

14:                                               ; preds = %13, %1
  ret void

15:                                               ; preds = %7
  %16 = landingpad { ptr, i32 }
          catch ptr null
  %17 = extractvalue { ptr, i32 } %16, 0
  call void @__clang_call_terminate(ptr %17) #24
  unreachable
}

; Function Attrs: mustprogress nounwind uwtable
define linkonce_odr void @_ZNSt14_Optional_baseIN5boost11coroutines26detail14push_coroutineIbEELb0ELb0EED2Ev(ptr noundef nonnull align 8 dereferenceable(16) %0) unnamed_addr #2 comdat align 2 {
  %2 = alloca ptr, align 8
  store ptr %0, ptr %2, align 8
  %3 = load ptr, ptr %2, align 8
  %4 = getelementptr inbounds %"struct.std::_Optional_base.104", ptr %3, i32 0, i32 0
  call void @_ZNSt17_Optional_payloadIN5boost11coroutines26detail14push_coroutineIbEELb0ELb0ELb0EED2Ev(ptr noundef nonnull align 8 dereferenceable(9) %4) #1
  ret void
}

; Function Attrs: mustprogress nounwind uwtable
define linkonce_odr void @_ZN3nix10FinishSinkD2Ev(ptr noundef nonnull align 8 dereferenceable(8) %0, ptr noundef %1) unnamed_addr #2 comdat align 2 {
  %3 = alloca ptr, align 8
  %4 = alloca ptr, align 8
  store ptr %0, ptr %3, align 8
  store ptr %1, ptr %4, align 8
  ret void
}

; Function Attrs: mustprogress nounwind uwtable
define linkonce_odr void @_ZNSt8functionIFvRN3nix6SourceEEED2Ev(ptr noundef nonnull align 8 dereferenceable(32) %0) unnamed_addr #2 comdat align 2 {
  %2 = alloca ptr, align 8
  store ptr %0, ptr %2, align 8
  %3 = load ptr, ptr %2, align 8
  call void @_ZNSt14_Function_baseD2Ev(ptr noundef nonnull align 8 dereferenceable(24) %3) #1
  ret void
}

; Function Attrs: mustprogress nounwind uwtable
define linkonce_odr void @_ZNSt8optionalIN5boost11coroutines26detail14push_coroutineIbEEED2Ev(ptr noundef nonnull align 8 dereferenceable(16) %0) unnamed_addr #2 comdat align 2 {
  %2 = alloca ptr, align 8
  store ptr %0, ptr %2, align 8
  %3 = load ptr, ptr %2, align 8
  call void @_ZNSt14_Optional_baseIN5boost11coroutines26detail14push_coroutineIbEELb0ELb0EED2Ev(ptr noundef nonnull align 8 dereferenceable(16) %3) #1
  ret void
}

; Function Attrs: mustprogress nounwind uwtable
define linkonce_odr void @_ZN3nix4SinkD2Ev(ptr noundef nonnull align 8 dereferenceable(8) %0) unnamed_addr #2 comdat align 2 {
  %2 = alloca ptr, align 8
  store ptr %0, ptr %2, align 8
  ret void
}

; Function Attrs: mustprogress nounwind uwtable
define internal void @_ZZN3nix12sourceToSinkESt8functionIFvRNS_6SourceEEEEN12SourceToSinkD2Ev(ptr noundef nonnull align 8 dereferenceable(72) %0, ptr noundef %1) unnamed_addr #2 align 2 {
  %3 = alloca ptr, align 8
  %4 = alloca ptr, align 8
  store ptr %0, ptr %3, align 8
  store ptr %1, ptr %4, align 8
  %5 = load ptr, ptr %3, align 8
  %6 = load ptr, ptr %4, align 8
  %7 = load ptr, ptr %6, align 8
  store ptr %7, ptr %5, align 8
  %8 = getelementptr inbounds ptr, ptr %6, i64 3
  %9 = load ptr, ptr %8, align 8
  %10 = load ptr, ptr %5, align 8
  %11 = getelementptr i8, ptr %10, i64 -48
  %12 = load i64, ptr %11, align 8
  %13 = getelementptr inbounds i8, ptr %5, i64 %12
  store ptr %9, ptr %13, align 8
  %14 = getelementptr inbounds %struct.SourceToSink, ptr %5, i32 0, i32 2
  call void @_ZNSt8optionalIN5boost11coroutines26detail14push_coroutineIbEEED2Ev(ptr noundef nonnull align 8 dereferenceable(16) %14) #1
  %15 = getelementptr inbounds %struct.SourceToSink, ptr %5, i32 0, i32 1
  call void @_ZNSt8functionIFvRN3nix6SourceEEED2Ev(ptr noundef nonnull align 8 dereferenceable(32) %15) #1
  %16 = getelementptr inbounds ptr, ptr %6, i64 1
  call void @_ZN3nix10FinishSinkD2Ev(ptr noundef nonnull align 8 dereferenceable(8) %5, ptr noundef %16) #1
  ret void
}

; Function Attrs: mustprogress nounwind uwtable
define internal void @_ZZN3nix12sourceToSinkESt8functionIFvRNS_6SourceEEEEN12SourceToSinkD1Ev(ptr noundef nonnull align 8 dereferenceable(72) %0) unnamed_addr #2 align 2 {
  %2 = alloca ptr, align 8
  store ptr %0, ptr %2, align 8
  %3 = load ptr, ptr %2, align 8
  call void @_ZZN3nix12sourceToSinkESt8functionIFvRNS_6SourceEEEEN12SourceToSinkD2Ev(ptr noundef nonnull align 8 dereferenceable(72) %3, ptr noundef @_ZTTZN3nix12sourceToSinkESt8functionIFvRNS_6SourceEEEE12SourceToSink) #1
  call void @_ZN3nix4SinkD2Ev(ptr noundef nonnull align 8 dereferenceable(8) %3) #1
  ret void
}